target datalayout = "e-m:e-p270:32:32-p271:32:32-p272:64:64-i64:64-i128:128-f80:128-n8:16:32:64-S128"
target triple = "x86_64-pc-linux-gnu"

%struct.pmix_class_t = type { ptr, ptr, ptr, ptr, i32, i32, ptr, ptr, i64 }
%struct.pmix_object_t = type { %union.pthread_mutex_t, ptr, i32, %struct.pmix_tma }
%union.pthread_mutex_t = type { %struct.__pthread_mutex_s }
%struct.__pthread_mutex_s = type { i32, i32, i32, i32, i32, i16, i16, %struct.__pthread_internal_list }
%struct.__pthread_internal_list = type { ptr, ptr }
%struct.pmix_tma = type { ptr, ptr, ptr, ptr, ptr, ptr, ptr, ptr }
%struct.timeval = type { i64, i64 }
%struct.event = type { %struct.event_callback, %union.anon.0, i32, ptr, %union.anon.2, i16, i16, %struct.timeval }
%struct.event_callback = type { %struct.anon, i16, i8, i8, %union.anon, ptr }
%struct.anon = type { ptr, ptr }
%union.anon = type { ptr }
%union.anon.0 = type { %struct.anon.1 }
%struct.anon.1 = type { ptr, ptr }
%union.anon.2 = type { %struct.anon.3 }
%struct.anon.3 = type { %struct.anon.4, %struct.timeval }
%struct.anon.4 = type { ptr, ptr }
%struct.heartbeat_caddy_t = type { %struct.pmix_object_t, %struct.event, ptr, ptr }

@.str.13 = private unnamed_addr constant [21 x i8] c"pthread_mutex_lock()\00", align 1

; Function Attrs: inlinehint nounwind uwtable
define internal void @pmix_tma_free(ptr noundef %0, ptr noundef %1) #2 {
  %3 = alloca ptr, align 8
  %4 = alloca ptr, align 8
  store ptr %0, ptr %3, align 8, !tbaa !95
  store ptr %1, ptr %4, align 8, !tbaa !57
  %5 = load ptr, ptr %3, align 8, !tbaa !95
  %6 = icmp ne ptr null, %5
  br i1 %6, label %7, label %13

7:                                                ; preds = %2
  %8 = load ptr, ptr %3, align 8, !tbaa !95
  %9 = getelementptr inbounds nuw %struct.pmix_tma, ptr %8, i32 0, i32 5
  %10 = load ptr, ptr %9, align 8, !tbaa !115
  %11 = load ptr, ptr %3, align 8, !tbaa !95
  %12 = load ptr, ptr %4, align 8, !tbaa !57
  call void %10(ptr noundef %11, ptr noundef %12)
  br label %15

13:                                               ; preds = %2
  %14 = load ptr, ptr %4, align 8, !tbaa !57
  call void @free(ptr noundef %14) #11
  br label %15

15:                                               ; preds = %13, %7
  ret void
}

; Function Attrs: inlinehint nounwind uwtable
define internal void @pmix_obj_run_destructors(ptr noundef %0) #2 {
  %2 = alloca ptr, align 8
  %3 = alloca ptr, align 8
  store ptr %0, ptr %2, align 8, !tbaa !67
  call void @llvm.lifetime.start.p0(i64 8, ptr %3) #11
  %4 = load ptr, ptr %2, align 8, !tbaa !67
  %5 = getelementptr inbounds nuw %struct.pmix_object_t, ptr %4, i32 0, i32 1
  %6 = load ptr, ptr %5, align 8, !tbaa !100
  %7 = getelementptr inbounds nuw %struct.pmix_class_t, ptr %6, i32 0, i32 7
  %8 = load ptr, ptr %7, align 8, !tbaa !113
  store ptr %8, ptr %3, align 8, !tbaa !57
  br label %9

9:                                                ; preds = %13, %1
  %10 = load ptr, ptr %3, align 8, !tbaa !57
  %11 = load ptr, ptr %10, align 8, !tbaa !57
  %12 = icmp ne ptr null, %11
  br i1 %12, label %13, label %19

13:                                               ; preds = %9
  %14 = load ptr, ptr %3, align 8, !tbaa !57
  %15 = load ptr, ptr %14, align 8, !tbaa !57
  %16 = load ptr, ptr %2, align 8, !tbaa !67
  call void %15(ptr noundef %16)
  %17 = load ptr, ptr %3, align 8, !tbaa !57
  %18 = getelementptr inbounds nuw ptr, ptr %17, i32 1
  store ptr %18, ptr %3, align 8, !tbaa !57
  br label %9, !llvm.loop !114

19:                                               ; preds = %9
  call void @llvm.lifetime.end.p0(i64 8, ptr %3) #11
  ret void
}

; Function Attrs: alwaysinline nounwind uwtable
define internal i32 @pmix_obj_update(ptr noundef %0, i32 noundef %1) #3 {
  %3 = alloca ptr, align 8
  %4 = alloca i32, align 4
  %5 = alloca i32, align 4
  store ptr %0, ptr %3, align 8, !tbaa !67
  store i32 %1, ptr %4, align 4, !tbaa !8
  call void @llvm.lifetime.start.p0(i64 4, ptr %5) #11
  %6 = load ptr, ptr %3, align 8, !tbaa !67
  %7 = getelementptr inbounds nuw %struct.pmix_object_t, ptr %6, i32 0, i32 0
  %8 = call i32 @pthread_mutex_lock(ptr noundef %7) #11
  store i32 %8, ptr %5, align 4, !tbaa !8
  %9 = load i32, ptr %5, align 4, !tbaa !8
  %10 = icmp eq i32 %9, 35
  br i1 %10, label %11, label %14

11:                                               ; preds = %2
  %12 = load i32, ptr %5, align 4, !tbaa !8
  %13 = call ptr @__errno_location() #13
  store i32 %12, ptr %13, align 4, !tbaa !8
  call void @perror(ptr noundef @.str.13)
  call void @abort() #14
  unreachable

14:                                               ; preds = %2
  %15 = load i32, ptr %4, align 4, !tbaa !8
  %16 = load ptr, ptr %3, align 8, !tbaa !67
  %17 = getelementptr inbounds nuw %struct.pmix_object_t, ptr %16, i32 0, i32 2
  %18 = load i32, ptr %17, align 8, !tbaa !101
  %19 = add nsw i32 %18, %15
  store i32 %19, ptr %17, align 8, !tbaa !101
  store i32 %19, ptr %5, align 4, !tbaa !8
  %20 = load ptr, ptr %3, align 8, !tbaa !67
  %21 = getelementptr inbounds nuw %struct.pmix_object_t, ptr %20, i32 0, i32 0
  %22 = call i32 @pthread_mutex_unlock(ptr noundef %21) #11
  %23 = load i32, ptr %5, align 4, !tbaa !8
  call void @llvm.lifetime.end.p0(i64 4, ptr %5) #11
  ret i32 %23
}

; Function Attrs: nounwind uwtable
define internal void @cd_des(ptr noundef %0) #0 {
  %2 = alloca ptr, align 8
  %3 = alloca ptr, align 8
  store ptr %0, ptr %2, align 8, !tbaa !57
  %4 = load ptr, ptr %2, align 8, !tbaa !57
  %5 = getelementptr inbounds nuw %struct.heartbeat_caddy_t, ptr %4, i32 0, i32 2
  %6 = load ptr, ptr %5, align 8, !tbaa !81
  %7 = icmp ne ptr null, %6
  br i1 %7, label %8, label %38

8:                                                ; preds = %1
  br label %9

9:                                                ; preds = %8
  call void @llvm.lifetime.start.p0(i64 8, ptr %3) #11
  %10 = load ptr, ptr %2, align 8, !tbaa !57
  %11 = getelementptr inbounds nuw %struct.heartbeat_caddy_t, ptr %10, i32 0, i32 2
  %12 = load ptr, ptr %11, align 8, !tbaa !81
  store ptr %12, ptr %3, align 8, !tbaa !67
  %13 = load ptr, ptr %3, align 8, !tbaa !67
  %14 = call i32 @pmix_obj_update(ptr noundef %13, i32 noundef -1)
  %15 = icmp eq i32 0, %14
  br i1 %15, label %16, label %36

16:                                               ; preds = %9
  %17 = load ptr, ptr %3, align 8, !tbaa !67
  call void @pmix_obj_run_destructors(ptr noundef %17)
  %18 = load ptr, ptr %3, align 8, !tbaa !67
  %19 = getelementptr inbounds nuw %struct.pmix_object_t, ptr %18, i32 0, i32 3
  %20 = getelementptr inbounds nuw %struct.pmix_tma, ptr %19, i32 0, i32 5
  %21 = load ptr, ptr %20, align 8, !tbaa !69
  %22 = icmp ne ptr null, %21
  br i1 %22, label %23, label %29

23:                                               ; preds = %16
  %24 = load ptr, ptr %3, align 8, !tbaa !67
  %25 = getelementptr inbounds nuw %struct.pmix_object_t, ptr %24, i32 0, i32 3
  %26 = load ptr, ptr %2, align 8, !tbaa !57
  %27 = getelementptr inbounds nuw %struct.heartbeat_caddy_t, ptr %26, i32 0, i32 2
  %28 = load ptr, ptr %27, align 8, !tbaa !81
  call void @pmix_tma_free(ptr noundef %25, ptr noundef %28)
  br label %33

29:                                               ; preds = %16
  %30 = load ptr, ptr %2, align 8, !tbaa !57
  %31 = getelementptr inbounds nuw %struct.heartbeat_caddy_t, ptr %30, i32 0, i32 2
  %32 = load ptr, ptr %31, align 8, !tbaa !81
  call void @free(ptr noundef %32) #11
  br label %33

33:                                               ; preds = %29, %23
  %34 = load ptr, ptr %2, align 8, !tbaa !57
  %35 = getelementptr inbounds nuw %struct.heartbeat_caddy_t, ptr %34, i32 0, i32 2
  store ptr null, ptr %35, align 8, !tbaa !81
  br label %36

36:                                               ; preds = %33, %9
  call void @llvm.lifetime.end.p0(i64 8, ptr %3) #11
  br label %37

37:                                               ; preds = %36
  br label %38

38:                                               ; preds = %37, %1
  %39 = load ptr, ptr %2, align 8, !tbaa !57
  %40 = getelementptr inbounds nuw %struct.heartbeat_caddy_t, ptr %39, i32 0, i32 3
  %41 = load ptr, ptr %40, align 8, !tbaa !83
  %42 = icmp ne ptr null, %41
  br i1 %42, label %43, label %47

43:                                               ; preds = %38
  %44 = load ptr, ptr %2, align 8, !tbaa !57
  %45 = getelementptr inbounds nuw %struct.heartbeat_caddy_t, ptr %44, i32 0, i32 3
  %46 = load ptr, ptr %45, align 8, !tbaa !83
  call void @free(ptr noundef %46) #11
  br label %47

47:                                               ; preds = %43, %38
  ret void
}